target datalayout = "e-m:e-p270:32:32-p271:32:32-p272:64:64-i64:64-i128:128-f80:128-n8:16:32:64-S128"
target triple = "x86_64-pc-linux-gnu"

module asm ".section .qtversion, \22aG\22, @progbits, qt_version_tag, comdat"
module asm ".align 8"
module asm ".quad qt_version_tag@GOT"
module asm ".long ((6<<16)|(2<<8)|(4))"
module asm ".align 8"
module asm ".previous"

%class.QModelIndex = type { i32, i32, i64, ptr }
%class.ExpertPacketItem = type { ptr, i32, i32, i32, i32, %class.QByteArray, %class.QByteArray, %class.QByteArray, %class.QList.2, ptr, %class.QHash }
%class.QByteArray = type { %struct.QArrayDataPointer.1 }
%struct.QArrayDataPointer.1 = type { ptr, ptr, i64 }
%class.QList.2 = type { %struct.QArrayDataPointer.5 }
%struct.QArrayDataPointer.5 = type { ptr, ptr, i64 }
%class.QHash = type { ptr }

$_ZNK11QModelIndex7isValidEv = comdat any

$_ZNK11QModelIndex6parentEv = comdat any

$_ZNK11QModelIndex15internalPointerEv = comdat any

$_ZNK16ExpertPacketItem9packetNumEv = comdat any

$_ZNK16ExpertPacketItem4hfIdEv = comdat any

$_ZN11QModelIndexC2Ev = comdat any

@_ZTV18ExpertInfoTreeView = external unnamed_addr constant { [100 x ptr], [10 x ptr] }, align 8

@_ZN18ExpertInfoTreeViewC1EP7QWidget = unnamed_addr alias void (ptr, ptr), ptr @_ZN18ExpertInfoTreeViewC2EP7QWidget

; Function Attrs: mustprogress uwtable
define void @_ZN18ExpertInfoTreeViewC2EP7QWidget(ptr noundef nonnull align 8 dereferenceable(40) %0, ptr noundef %1) unnamed_addr #0 align 2 {
  %3 = alloca ptr, align 8
  %4 = alloca ptr, align 8
  store ptr %0, ptr %3, align 8
  store ptr %1, ptr %4, align 8
  %5 = load ptr, ptr %3, align 8
  %6 = load ptr, ptr %4, align 8
  call void @_ZN9QTreeViewC2EP7QWidget(ptr noundef nonnull align 8 dereferenceable(40) %5, ptr noundef %6)
  store ptr getelementptr inbounds ({ [100 x ptr], [10 x ptr] }, ptr @_ZTV18ExpertInfoTreeView, i32 0, i32 0, i32 2), ptr %5, align 8
  %7 = getelementptr inbounds i8, ptr %5, i64 16
  store ptr getelementptr inbounds ({ [100 x ptr], [10 x ptr] }, ptr @_ZTV18ExpertInfoTreeView, i32 0, i32 1, i32 2), ptr %7, align 8
  ret void
}

declare void @_ZN9QTreeViewC2EP7QWidget(ptr noundef nonnull align 8 dereferenceable(40), ptr noundef) unnamed_addr #1

; Function Attrs: mustprogress uwtable
define void @_ZN18ExpertInfoTreeView14currentChangedERK11QModelIndexS2_(ptr noundef nonnull align 8 dereferenceable(40) %0, ptr noundef nonnull align 8 dereferenceable(24) %1, ptr noundef nonnull align 8 dereferenceable(24) %2) unnamed_addr #0 align 2 {
  %4 = alloca ptr, align 8
  %5 = alloca ptr, align 8
  %6 = alloca ptr, align 8
  %7 = alloca %class.QModelIndex, align 8
  %8 = alloca %class.QModelIndex, align 8
  %9 = alloca %class.QModelIndex, align 8
  %10 = alloca ptr, align 8
  store ptr %0, ptr %4, align 8
  store ptr %1, ptr %5, align 8
  store ptr %2, ptr %6, align 8
  %11 = load ptr, ptr %4, align 8
  %12 = load ptr, ptr %5, align 8
  %13 = call noundef zeroext i1 @_ZNK11QModelIndex7isValidEv(ptr noundef nonnull align 8 dereferenceable(24) %12) #3
  br i1 %13, label %14, label %39

14:                                               ; preds = %3
  %15 = load ptr, ptr %5, align 8
  call void @_ZNK11QModelIndex6parentEv(ptr dead_on_unwind writable sret(%class.QModelIndex) align 8 %7, ptr noundef nonnull align 8 dereferenceable(24) %15)
  %16 = call noundef zeroext i1 @_ZNK11QModelIndex7isValidEv(ptr noundef nonnull align 8 dereferenceable(24) %7) #3
  br i1 %16, label %17, label %19

17:                                               ; preds = %14
  %18 = call noundef ptr @_ZNK17QAbstractItemView5modelEv(ptr noundef nonnull align 8 dereferenceable(40) %11)
  call void @_ZN20ExpertInfoProxyModel15setSeverityModeENS_12SeverityModeE(ptr noundef nonnull align 8 dereferenceable(72) %18, i32 noundef 1)
  br label %21

19:                                               ; preds = %14
  %20 = call noundef ptr @_ZNK17QAbstractItemView5modelEv(ptr noundef nonnull align 8 dereferenceable(40) %11)
  call void @_ZN20ExpertInfoProxyModel15setSeverityModeENS_12SeverityModeE(ptr noundef nonnull align 8 dereferenceable(72) %20, i32 noundef 0)
  br label %21

21:                                               ; preds = %19, %17
  %22 = call noundef ptr @_ZNK17QAbstractItemView5modelEv(ptr noundef nonnull align 8 dereferenceable(40) %11)
  %23 = load ptr, ptr %5, align 8
  %24 = load ptr, ptr %22, align 8
  %25 = getelementptr inbounds ptr, ptr %24, i64 50
  %26 = load ptr, ptr %25, align 8
  call void %26(ptr dead_on_unwind writable sret(%class.QModelIndex) align 8 %8, ptr noundef nonnull align 8 dereferenceable(16) %22, ptr noundef nonnull align 8 dereferenceable(24) %23)
  call void @_ZNK11QModelIndex6parentEv(ptr dead_on_unwind writable sret(%class.QModelIndex) align 8 %9, ptr noundef nonnull align 8 dereferenceable(24) %8)
  %27 = call noundef zeroext i1 @_ZNK11QModelIndex7isValidEv(ptr noundef nonnull align 8 dereferenceable(24) %9) #3
  br i1 %27, label %28, label %38

28:                                               ; preds = %21
  %29 = call noundef ptr @_ZNK11QModelIndex15internalPointerEv(ptr noundef nonnull align 8 dereferenceable(24) %8) #3
  store ptr %29, ptr %10, align 8
  %30 = load ptr, ptr %10, align 8
  %31 = icmp ne ptr %30, null
  br i1 %31, label %32, label %37

32:                                               ; preds = %28
  %33 = load ptr, ptr %10, align 8
  %34 = call noundef i32 @_ZNK16ExpertPacketItem9packetNumEv(ptr noundef nonnull align 8 dereferenceable(136) %33)
  %35 = load ptr, ptr %10, align 8
  %36 = call noundef i32 @_ZNK16ExpertPacketItem4hfIdEv(ptr noundef nonnull align 8 dereferenceable(136) %35)
  call void @_ZN18ExpertInfoTreeView10goToPacketEii(ptr noundef nonnull align 8 dereferenceable(40) %11, i32 noundef %34, i32 noundef %36)
  br label %37

37:                                               ; preds = %32, %28
  br label %38

38:                                               ; preds = %37, %21
  br label %39

39:                                               ; preds = %38, %3
  %40 = load ptr, ptr %5, align 8
  %41 = load ptr, ptr %6, align 8
  call void @_ZN9QTreeView14currentChangedERK11QModelIndexS2_(ptr noundef nonnull align 8 dereferenceable(40) %11, ptr noundef nonnull align 8 dereferenceable(24) %40, ptr noundef nonnull align 8 dereferenceable(24) %41)
  ret void
}

; Function Attrs: mustprogress nounwind uwtable
define linkonce_odr noundef zeroext i1 @_ZNK11QModelIndex7isValidEv(ptr noundef nonnull align 8 dereferenceable(24) %0) #2 comdat align 2 {
  %2 = alloca ptr, align 8
  store ptr %0, ptr %2, align 8
  %3 = load ptr, ptr %2, align 8
  %4 = getelementptr inbounds %class.QModelIndex, ptr %3, i32 0, i32 0
  %5 = load i32, ptr %4, align 8
  %6 = icmp sge i32 %5, 0
  br i1 %6, label %7, label %15

7:                                                ; preds = %1
  %8 = getelementptr inbounds %class.QModelIndex, ptr %3, i32 0, i32 1
  %9 = load i32, ptr %8, align 4
  %10 = icmp sge i32 %9, 0
  br i1 %10, label %11, label %15

11:                                               ; preds = %7
  %12 = getelementptr inbounds %class.QModelIndex, ptr %3, i32 0, i32 3
  %13 = load ptr, ptr %12, align 8
  %14 = icmp ne ptr %13, null
  br label %15

15:                                               ; preds = %11, %7, %1
  %16 = phi i1 [ false, %7 ], [ false, %1 ], [ %14, %11 ]
  ret i1 %16
}

; Function Attrs: mustprogress uwtable
define linkonce_odr void @_ZNK11QModelIndex6parentEv(ptr dead_on_unwind noalias writable sret(%class.QModelIndex) align 8 %0, ptr noundef nonnull align 8 dereferenceable(24) %1) #0 comdat align 2 {
  %3 = alloca ptr, align 8
  store ptr %1, ptr %3, align 8
  %4 = load ptr, ptr %3, align 8
  %5 = getelementptr inbounds %class.QModelIndex, ptr %4, i32 0, i32 3
  %6 = load ptr, ptr %5, align 8
  %7 = icmp ne ptr %6, null
  br i1 %7, label %8, label %14

8:                                                ; preds = %2
  %9 = getelementptr inbounds %class.QModelIndex, ptr %4, i32 0, i32 3
  %10 = load ptr, ptr %9, align 8
  %11 = load ptr, ptr %10, align 8
  %12 = getelementptr inbounds ptr, ptr %11, i64 13
  %13 = load ptr, ptr %12, align 8
  call void %13(ptr dead_on_unwind writable sret(%class.QModelIndex) align 8 %0, ptr noundef nonnull align 8 dereferenceable(16) %10, ptr noundef nonnull align 8 dereferenceable(24) %4)
  br label %15

14:                                               ; preds = %2
  call void @_ZN11QModelIndexC2Ev(ptr noundef nonnull align 8 dereferenceable(24) %0) #3
  br label %15

15:                                               ; preds = %14, %8
  ret void
}

declare noundef ptr @_ZNK17QAbstractItemView5modelEv(ptr noundef nonnull align 8 dereferenceable(40)) #1

declare void @_ZN20ExpertInfoProxyModel15setSeverityModeENS_12SeverityModeE(ptr noundef nonnull align 8 dereferenceable(72), i32 noundef) #1

; Function Attrs: mustprogress nounwind uwtable
define linkonce_odr noundef ptr @_ZNK11QModelIndex15internalPointerEv(ptr noundef nonnull align 8 dereferenceable(24) %0) #2 comdat align 2 {
  %2 = alloca ptr, align 8
  store ptr %0, ptr %2, align 8
  %3 = load ptr, ptr %2, align 8
  %4 = getelementptr inbounds %class.QModelIndex, ptr %3, i32 0, i32 2
  %5 = load i64, ptr %4, align 8
  %6 = inttoptr i64 %5 to ptr
  ret ptr %6
}

declare void @_ZN18ExpertInfoTreeView10goToPacketEii(ptr noundef nonnull align 8 dereferenceable(40), i32 noundef, i32 noundef) #1

; Function Attrs: mustprogress nounwind uwtable
define linkonce_odr noundef i32 @_ZNK16ExpertPacketItem9packetNumEv(ptr noundef nonnull align 8 dereferenceable(136) %0) #2 comdat align 2 {
  %2 = alloca ptr, align 8
  store ptr %0, ptr %2, align 8
  %3 = load ptr, ptr %2, align 8
  %4 = getelementptr inbounds %class.ExpertPacketItem, ptr %3, i32 0, i32 1
  %5 = load i32, ptr %4, align 8
  ret i32 %5
}

; Function Attrs: mustprogress nounwind uwtable
define linkonce_odr noundef i32 @_ZNK16ExpertPacketItem4hfIdEv(ptr noundef nonnull align 8 dereferenceable(136) %0) #2 comdat align 2 {
  %2 = alloca ptr, align 8
  store ptr %0, ptr %2, align 8
  %3 = load ptr, ptr %2, align 8
  %4 = getelementptr inbounds %class.ExpertPacketItem, ptr %3, i32 0, i32 4
  %5 = load i32, ptr %4, align 4
  ret i32 %5
}

declare void @_ZN9QTreeView14currentChangedERK11QModelIndexS2_(ptr noundef nonnull align 8 dereferenceable(40), ptr noundef nonnull align 8 dereferenceable(24), ptr noundef nonnull align 8 dereferenceable(24)) unnamed_addr #1

; Function Attrs: mustprogress nounwind uwtable
define linkonce_odr void @_ZN11QModelIndexC2Ev(ptr noundef nonnull align 8 dereferenceable(24) %0) unnamed_addr #2 comdat align 2 {
  %2 = alloca ptr, align 8
  store ptr %0, ptr %2, align 8
  %3 = load ptr, ptr %2, align 8
  %4 = getelementptr inbounds %class.QModelIndex, ptr %3, i32 0, i32 0
  store i32 -1, ptr %4, align 8
  %5 = getelementptr inbounds %class.QModelIndex, ptr %3, i32 0, i32 1
  store i32 -1, ptr %5, align 4
  %6 = getelementptr inbounds %class.QModelIndex, ptr %3, i32 0, i32 2
  store i64 0, ptr %6, align 8
  %7 = getelementptr inbounds %class.QModelIndex, ptr %3, i32 0, i32 3
  store ptr null, ptr %7, align 8
  ret void
}


!llvm.module.flags = !{!0, !1, !2, !3}

!0 = !{i32 1, !"wchar_size", i32 4}
!1 = !{i32 8, !"PIC Level", i32 2}
!2 = !{i32 7, !"uwtable", i32 2}
!3 = !{i32 7, !"frame-pointer", i32 2}
